target datalayout = "e-m:e-p270:32:32-p271:32:32-p272:64:64-i64:64-i128:128-f80:128-n8:16:32:64-S128"
target triple = "x86_64-unknown-linux-gnu"

%"class.v8::LocalBase.1" = type { %"class.v8::IndirectHandleBase" }
%"class.v8::IndirectHandleBase" = type { ptr }
%"class.v8::Local.0" = type { %"class.v8::LocalBase.1" }
%"class.v8::Maybe" = type { i8, i8 }
%"class.v8::Local" = type { %"class.v8::LocalBase" }
%"class.v8::LocalBase" = type { %"class.v8::IndirectHandleBase" }
%"class.node::Environment" = type { %"class.node::MemoryRetainer", %"class.std::unordered_multimap", %"class.std::__cxx11::list", ptr, ptr, %struct.uv_timer_s, %struct.uv_check_s, %struct.uv_idle_s, %struct.uv_prepare_s, %struct.uv_check_s, %struct.uv_async_s, i64, %"struct.std::atomic", %"struct.std::atomic", %"class.node::AsyncHooks", %"class.node::ImmediateInfo", %"class.node::AliasedBufferBase.21", %"class.node::TickInfo", %"class.node::permission::Permission", i64, %"class.std::shared_ptr", i8, i8, i8, i8, i8, i8, i64, %"class.std::vector.46", %"class.std::unordered_set", %"class.std::unique_ptr", %"class.std::unique_ptr.72", %"class.std::__cxx11::basic_string", %"class.std::__cxx11::basic_string", %"class.std::__cxx11::basic_string", i64, %"class.std::unique_ptr.84", %"class.std::__cxx11::basic_string", %"class.std::__cxx11::basic_string", i64, %"class.std::shared_ptr.92", %"class.std::shared_ptr.95", %"class.std::vector.98", %"class.std::vector.98", %"class.std::__cxx11::basic_string", i8, i32, i32, i8, i32, i32, i32, i32, %"class.node::AliasedBufferBase.21", %"class.node::AliasedBufferBase.11", i32, %"class.std::unique_ptr.103", %"class.node::AliasedBufferBase.21", i64, double, i64, %"class.std::unique_ptr.111", i8, i64, i64, %"class.std::unordered_set.119", %"class.std::unique_ptr.139", i8, %"class.std::__cxx11::list.147", %"class.node::ListHead", %"class.node::ListHead.152", %"class.std::__cxx11::list.154", i32, i32, %"class.node::EnabledDebugList", %"class.std::vector.159", %"class.std::__cxx11::list.164", %"class.node::MutexBase", %"class.std::__cxx11::list.169", %"class.node::CallbackQueue", %"class.node::MutexBase", %"class.node::CallbackQueue", %"class.node::CallbackQueue", i8, %"struct.std::atomic.184", %"class.node::CleanupQueue", i8, %"class.std::unordered_set.202", %"class.std::function", %"class.std::unique_ptr.217", %"class.node::builtins::BuiltinLoader", %"class.std::function.231", %"class.std::unordered_map.233" }
%"class.node::MemoryRetainer" = type { ptr }
%"class.std::unordered_multimap" = type { %"class.std::_Hashtable" }
%"class.std::_Hashtable" = type { ptr, i64, %"struct.std::__detail::_Hash_node_base", i64, %"struct.std::__detail::_Prime_rehash_policy", ptr }
%"struct.std::__detail::_Hash_node_base" = type { ptr }
%"struct.std::__detail::_Prime_rehash_policy" = type { float, i64 }
%"class.std::__cxx11::list" = type { %"class.std::__cxx11::_List_base" }
%"class.std::__cxx11::_List_base" = type { %"struct.std::__cxx11::_List_base<node::binding::DLib, std::allocator<node::binding::DLib>>::_List_impl" }
%"struct.std::__cxx11::_List_base<node::binding::DLib, std::allocator<node::binding::DLib>>::_List_impl" = type { %"struct.std::__detail::_List_node_header" }
%"struct.std::__detail::_List_node_header" = type { %"struct.std::__detail::_List_node_base", i64 }
%"struct.std::__detail::_List_node_base" = type { ptr, ptr }
%struct.uv_timer_s = type { ptr, ptr, i32, ptr, %struct.uv__queue, %union.anon, ptr, i32, ptr, [3 x ptr], i64, i64, i64 }
%struct.uv__queue = type { ptr, ptr }
%union.anon = type { [4 x ptr] }
%struct.uv_idle_s = type { ptr, ptr, i32, ptr, %struct.uv__queue, %union.anon.8, ptr, i32, ptr, %struct.uv__queue }
%union.anon.8 = type { [4 x ptr] }
%struct.uv_prepare_s = type { ptr, ptr, i32, ptr, %struct.uv__queue, %union.anon.9, ptr, i32, ptr, %struct.uv__queue }
%union.anon.9 = type { [4 x ptr] }
%struct.uv_check_s = type { ptr, ptr, i32, ptr, %struct.uv__queue, %union.anon.7, ptr, i32, ptr, %struct.uv__queue }
%union.anon.7 = type { [4 x ptr] }
%struct.uv_async_s = type { ptr, ptr, i32, ptr, %struct.uv__queue, %union.anon.10, ptr, i32, ptr, %struct.uv__queue, i32 }
%union.anon.10 = type { [4 x ptr] }
%"struct.std::atomic" = type { %"struct.std::__atomic_base" }
%"struct.std::__atomic_base" = type { i8 }
%"class.node::AsyncHooks" = type { %"class.node::MemoryRetainer", %"class.node::AliasedBufferBase", %"class.node::AliasedBufferBase.11", %"class.node::AliasedBufferBase", %"class.v8::Global.14", %"class.std::vector", ptr, %"struct.std::array" }
%"class.node::AliasedBufferBase" = type { %"class.node::MemoryRetainer", ptr, i64, i64, ptr, %"class.v8::Global", ptr }
%"class.v8::Global" = type { %"class.v8::PersistentBase" }
%"class.v8::PersistentBase" = type { %"class.v8::IndirectHandleBase" }
%"class.v8::Global.14" = type { %"class.v8::PersistentBase.15" }
%"class.v8::PersistentBase.15" = type { %"class.v8::IndirectHandleBase" }
%"class.std::vector" = type { %"struct.std::_Vector_base" }
%"struct.std::_Vector_base" = type { %"struct.std::_Vector_base<v8::Local<v8::Object>, std::allocator<v8::Local<v8::Object>>>::_Vector_impl" }
%"struct.std::_Vector_base<v8::Local<v8::Object>, std::allocator<v8::Local<v8::Object>>>::_Vector_impl" = type { %"struct.std::_Vector_base<v8::Local<v8::Object>, std::allocator<v8::Local<v8::Object>>>::_Vector_impl_data" }
%"struct.std::_Vector_base<v8::Local<v8::Object>, std::allocator<v8::Local<v8::Object>>>::_Vector_impl_data" = type { ptr, ptr, ptr }
%"struct.std::array" = type { [4 x %"class.v8::Global.19"] }
%"class.v8::Global.19" = type { %"class.v8::PersistentBase.20" }
%"class.v8::PersistentBase.20" = type { %"class.v8::IndirectHandleBase" }
%"class.node::ImmediateInfo" = type { %"class.node::MemoryRetainer", %"class.node::AliasedBufferBase.11" }
%"class.node::TickInfo" = type { %"class.node::MemoryRetainer", %"class.node::AliasedBufferBase.24" }
%"class.node::AliasedBufferBase.24" = type { %"class.node::MemoryRetainer", ptr, i64, i64, ptr, %"class.v8::Global.25", ptr }
%"class.v8::Global.25" = type { %"class.v8::PersistentBase.26" }
%"class.v8::PersistentBase.26" = type { %"class.v8::IndirectHandleBase" }
%"class.node::permission::Permission" = type <{ %"class.std::unordered_map", i8, [7 x i8] }>
%"class.std::unordered_map" = type { %"class.std::_Hashtable.27" }
%"class.std::_Hashtable.27" = type { ptr, i64, %"struct.std::__detail::_Hash_node_base", i64, %"struct.std::__detail::_Prime_rehash_policy", ptr }
%"class.std::shared_ptr" = type { %"class.std::__shared_ptr" }
%"class.std::__shared_ptr" = type { ptr, %"class.std::__shared_count" }
%"class.std::__shared_count" = type { ptr }
%"class.std::vector.46" = type { %"struct.std::_Vector_base.47" }
%"struct.std::_Vector_base.47" = type { %"struct.std::_Vector_base<double, std::allocator<double>>::_Vector_impl" }
%"struct.std::_Vector_base<double, std::allocator<double>>::_Vector_impl" = type { %"struct.std::_Vector_base<double, std::allocator<double>>::_Vector_impl_data" }
%"struct.std::_Vector_base<double, std::allocator<double>>::_Vector_impl_data" = type { ptr, ptr, ptr }
%"class.std::unordered_set" = type { %"class.std::_Hashtable.51" }
%"class.std::_Hashtable.51" = type { ptr, i64, %"struct.std::__detail::_Hash_node_base", i64, %"struct.std::__detail::_Prime_rehash_policy", ptr }
%"class.std::unique_ptr" = type { %"struct.std::__uniq_ptr_data" }
%"struct.std::__uniq_ptr_data" = type { %"class.std::__uniq_ptr_impl" }
%"class.std::__uniq_ptr_impl" = type { %"class.std::tuple" }
%"class.std::tuple" = type { %"struct.std::_Tuple_impl" }
%"struct.std::_Tuple_impl" = type { %"struct.std::_Head_base.71" }
%"struct.std::_Head_base.71" = type { ptr }
%"class.std::unique_ptr.72" = type { %"struct.std::__uniq_ptr_data.73" }
%"struct.std::__uniq_ptr_data.73" = type { %"class.std::__uniq_ptr_impl.74" }
%"class.std::__uniq_ptr_impl.74" = type { %"class.std::tuple.75" }
%"class.std::tuple.75" = type { %"struct.std::_Tuple_impl.76" }
%"struct.std::_Tuple_impl.76" = type { %"struct.std::_Head_base.79" }
%"struct.std::_Head_base.79" = type { ptr }
%"class.std::unique_ptr.84" = type { %"struct.std::__uniq_ptr_data.85" }
%"struct.std::__uniq_ptr_data.85" = type { %"class.std::__uniq_ptr_impl.86" }
%"class.std::__uniq_ptr_impl.86" = type { %"class.std::tuple.87" }
%"class.std::tuple.87" = type { %"struct.std::_Tuple_impl.88" }
%"struct.std::_Tuple_impl.88" = type { %"struct.std::_Head_base.91" }
%"struct.std::_Head_base.91" = type { ptr }
%"class.std::shared_ptr.92" = type { %"class.std::__shared_ptr.93" }
%"class.std::__shared_ptr.93" = type { ptr, %"class.std::__shared_count" }
%"class.std::shared_ptr.95" = type { %"class.std::__shared_ptr.96" }
%"class.std::__shared_ptr.96" = type { ptr, %"class.std::__shared_count" }
%"class.std::vector.98" = type { %"struct.std::_Vector_base.99" }
%"struct.std::_Vector_base.99" = type { %"struct.std::_Vector_base<std::__cxx11::basic_string<char>, std::allocator<std::__cxx11::basic_string<char>>>::_Vector_impl" }
%"struct.std::_Vector_base<std::__cxx11::basic_string<char>, std::allocator<std::__cxx11::basic_string<char>>>::_Vector_impl" = type { %"struct.std::_Vector_base<std::__cxx11::basic_string<char>, std::allocator<std::__cxx11::basic_string<char>>>::_Vector_impl_data" }
%"struct.std::_Vector_base<std::__cxx11::basic_string<char>, std::allocator<std::__cxx11::basic_string<char>>>::_Vector_impl_data" = type { ptr, ptr, ptr }
%"class.std::__cxx11::basic_string" = type { %"struct.std::__cxx11::basic_string<char>::_Alloc_hider", i64, %union.anon.83 }
%"struct.std::__cxx11::basic_string<char>::_Alloc_hider" = type { ptr }
%union.anon.83 = type { i64, [8 x i8] }
%"class.node::AliasedBufferBase.11" = type { %"class.node::MemoryRetainer", ptr, i64, i64, ptr, %"class.v8::Global.12", ptr }
%"class.v8::Global.12" = type { %"class.v8::PersistentBase.13" }
%"class.v8::PersistentBase.13" = type { %"class.v8::IndirectHandleBase" }
%"class.std::unique_ptr.103" = type { %"struct.std::__uniq_ptr_data.104" }
%"struct.std::__uniq_ptr_data.104" = type { %"class.std::__uniq_ptr_impl.105" }
%"class.std::__uniq_ptr_impl.105" = type { %"class.std::tuple.106" }
%"class.std::tuple.106" = type { %"struct.std::_Tuple_impl.107" }
%"struct.std::_Tuple_impl.107" = type { %"struct.std::_Head_base.110" }
%"struct.std::_Head_base.110" = type { ptr }
%"class.node::AliasedBufferBase.21" = type { %"class.node::MemoryRetainer", ptr, i64, i64, ptr, %"class.v8::Global.22", ptr }
%"class.v8::Global.22" = type { %"class.v8::PersistentBase.23" }
%"class.v8::PersistentBase.23" = type { %"class.v8::IndirectHandleBase" }
%"class.std::unique_ptr.111" = type { %"struct.std::__uniq_ptr_data.112" }
%"struct.std::__uniq_ptr_data.112" = type { %"class.std::__uniq_ptr_impl.113" }
%"class.std::__uniq_ptr_impl.113" = type { %"class.std::tuple.114" }
%"class.std::tuple.114" = type { %"struct.std::_Tuple_impl.115" }
%"struct.std::_Tuple_impl.115" = type { %"struct.std::_Head_base.118" }
%"struct.std::_Head_base.118" = type { ptr }
%"class.std::unordered_set.119" = type { %"class.std::_Hashtable.120" }
%"class.std::_Hashtable.120" = type { ptr, i64, %"struct.std::__detail::_Hash_node_base", i64, %"struct.std::__detail::_Prime_rehash_policy", ptr }
%"class.std::unique_ptr.139" = type { %"struct.std::__uniq_ptr_data.140" }
%"struct.std::__uniq_ptr_data.140" = type { %"class.std::__uniq_ptr_impl.141" }
%"class.std::__uniq_ptr_impl.141" = type { %"class.std::tuple.142" }
%"class.std::tuple.142" = type { %"struct.std::_Tuple_impl.143" }
%"struct.std::_Tuple_impl.143" = type { %"struct.std::_Head_base.146" }
%"struct.std::_Head_base.146" = type { ptr }
%"class.std::__cxx11::list.147" = type { %"class.std::__cxx11::_List_base.148" }
%"class.std::__cxx11::_List_base.148" = type { %"struct.std::__cxx11::_List_base<node::DeserializeRequest, std::allocator<node::DeserializeRequest>>::_List_impl" }
%"struct.std::__cxx11::_List_base<node::DeserializeRequest, std::allocator<node::DeserializeRequest>>::_List_impl" = type { %"struct.std::__detail::_List_node_header" }
%"class.node::ListHead" = type { %"class.node::ListNode" }
%"class.node::ListNode" = type { ptr, ptr }
%"class.node::ListHead.152" = type { %"class.node::ListNode.153" }
%"class.node::ListNode.153" = type { ptr, ptr }
%"class.std::__cxx11::list.154" = type { %"class.std::__cxx11::_List_base.155" }
%"class.std::__cxx11::_List_base.155" = type { %"struct.std::__cxx11::_List_base<node::Environment::HandleCleanup, std::allocator<node::Environment::HandleCleanup>>::_List_impl" }
%"struct.std::__cxx11::_List_base<node::Environment::HandleCleanup, std::allocator<node::Environment::HandleCleanup>>::_List_impl" = type { %"struct.std::__detail::_List_node_header" }
%"class.node::EnabledDebugList" = type { [75 x i8] }
%"class.std::vector.159" = type { %"struct.std::_Vector_base.160" }
%"struct.std::_Vector_base.160" = type { %"struct.std::_Vector_base<v8::Global<v8::Context>, std::allocator<v8::Global<v8::Context>>>::_Vector_impl" }
%"struct.std::_Vector_base<v8::Global<v8::Context>, std::allocator<v8::Global<v8::Context>>>::_Vector_impl" = type { %"struct.std::_Vector_base<v8::Global<v8::Context>, std::allocator<v8::Global<v8::Context>>>::_Vector_impl_data" }
%"struct.std::_Vector_base<v8::Global<v8::Context>, std::allocator<v8::Global<v8::Context>>>::_Vector_impl_data" = type { ptr, ptr, ptr }
%"class.std::__cxx11::list.164" = type { %"class.std::__cxx11::_List_base.165" }
%"class.std::__cxx11::_List_base.165" = type { %"struct.std::__cxx11::_List_base<node::node_module, std::allocator<node::node_module>>::_List_impl" }
%"struct.std::__cxx11::_List_base<node::node_module, std::allocator<node::node_module>>::_List_impl" = type { %"struct.std::__detail::_List_node_header" }
%"class.std::__cxx11::list.169" = type { %"class.std::__cxx11::_List_base.170" }
%"class.std::__cxx11::_List_base.170" = type { %"struct.std::__cxx11::_List_base<node::Environment::ExitCallback, std::allocator<node::Environment::ExitCallback>>::_List_impl" }
%"struct.std::__cxx11::_List_base<node::Environment::ExitCallback, std::allocator<node::Environment::ExitCallback>>::_List_impl" = type { %"struct.std::__detail::_List_node_header" }
%"class.node::MutexBase" = type { %union.pthread_mutex_t }
%union.pthread_mutex_t = type { %struct.__pthread_mutex_s }
%struct.__pthread_mutex_s = type { i32, i32, i32, i32, i32, i16, i16, %struct.__pthread_internal_list }
%struct.__pthread_internal_list = type { ptr, ptr }
%"class.node::CallbackQueue" = type { %"struct.std::atomic.174", %"class.std::unique_ptr.176", ptr }
%"struct.std::atomic.174" = type { %"struct.std::__atomic_base.175" }
%"struct.std::__atomic_base.175" = type { i64 }
%"class.std::unique_ptr.176" = type { %"struct.std::__uniq_ptr_data.177" }
%"struct.std::__uniq_ptr_data.177" = type { %"class.std::__uniq_ptr_impl.178" }
%"class.std::__uniq_ptr_impl.178" = type { %"class.std::tuple.179" }
%"class.std::tuple.179" = type { %"struct.std::_Tuple_impl.180" }
%"struct.std::_Tuple_impl.180" = type { %"struct.std::_Head_base.183" }
%"struct.std::_Head_base.183" = type { ptr }
%"struct.std::atomic.184" = type { %"struct.std::__atomic_base.185" }
%"struct.std::__atomic_base.185" = type { ptr }
%"class.node::CleanupQueue" = type { %"class.node::MemoryRetainer", %"class.std::unordered_set.186", i64 }
%"class.std::unordered_set.186" = type { %"class.std::_Hashtable.187" }
%"class.std::_Hashtable.187" = type { ptr, i64, %"struct.std::__detail::_Hash_node_base", i64, %"struct.std::__detail::_Prime_rehash_policy", ptr }
%"class.std::unordered_set.202" = type { %"class.std::_Hashtable.203" }
%"class.std::_Hashtable.203" = type { ptr, i64, %"struct.std::__detail::_Hash_node_base", i64, %"struct.std::__detail::_Prime_rehash_policy", ptr }
%"class.std::function" = type { %"class.std::_Function_base", ptr }
%"class.std::_Function_base" = type { %"union.std::_Any_data", ptr }
%"union.std::_Any_data" = type { %"union.std::_Nocopy_types" }
%"union.std::_Nocopy_types" = type { { i64, i64 } }
%"class.std::unique_ptr.217" = type { %"struct.std::__uniq_ptr_data.218" }
%"struct.std::__uniq_ptr_data.218" = type { %"class.std::__uniq_ptr_impl.219" }
%"class.std::__uniq_ptr_impl.219" = type { %"class.std::tuple.220" }
%"class.std::tuple.220" = type { %"struct.std::_Tuple_impl.221" }
%"struct.std::_Tuple_impl.221" = type { %"struct.std::_Head_base.224" }
%"struct.std::_Head_base.224" = type { ptr }
%"class.node::builtins::BuiltinLoader" = type { %"class.node::ThreadsafeCopyOnWrite", %"class.node::UnionBytes", %"class.std::shared_ptr.228" }
%"class.node::ThreadsafeCopyOnWrite" = type { %"class.node::CopyOnWrite" }
%"class.node::CopyOnWrite" = type { %"class.std::shared_ptr.225" }
%"class.std::shared_ptr.225" = type { %"class.std::__shared_ptr.226" }
%"class.std::__shared_ptr.226" = type { ptr, %"class.std::__shared_count" }
%"class.node::UnionBytes" = type { ptr, ptr }
%"class.std::shared_ptr.228" = type { %"class.std::__shared_ptr.229" }
%"class.std::__shared_ptr.229" = type { ptr, %"class.std::__shared_count" }
%"class.std::function.231" = type { %"class.std::_Function_base", ptr }
%"class.std::unordered_map.233" = type { %"class.std::_Hashtable.234" }
%"class.std::_Hashtable.234" = type { ptr, i64, %"struct.std::__detail::_Hash_node_base", i64, %"struct.std::__detail::_Prime_rehash_policy", ptr }

; Function Attrs: mustprogress nounwind uwtable
define linkonce_odr dso_local void @_ZN2v85MaybeIbEC2EOb(ptr noundef nonnull align 1 dereferenceable(2) %this, ptr noundef nonnull align 1 dereferenceable(1) %t) unnamed_addr #4 comdat align 2 {
entry:
  %this.addr = alloca ptr, align 8
  %t.addr = alloca ptr, align 8
  store ptr %this, ptr %this.addr, align 8
  store ptr %t, ptr %t.addr, align 8
  %this1 = load ptr, ptr %this.addr, align 8
  %has_value_ = getelementptr inbounds %"class.v8::Maybe", ptr %this1, i32 0, i32 0
  store i8 1, ptr %has_value_, align 1
  %value_ = getelementptr inbounds %"class.v8::Maybe", ptr %this1, i32 0, i32 1
  %0 = load ptr, ptr %t.addr, align 8
  %1 = load i8, ptr %0, align 1
  %tobool = trunc i8 %1 to i1
  %frombool = zext i1 %tobool to i8
  store i8 %frombool, ptr %value_, align 1
  ret void
}

; Function Attrs: mustprogress nounwind uwtable
define linkonce_odr dso_local i16 @_ZN2v84JustIbTnPNSt9enable_ifIXntsr3stdE21is_lvalue_reference_vIT_EEvE4typeELPv0EEENS_5MaybeIS2_EEOS2_(ptr noundef nonnull align 1 dereferenceable(1) %t) #4 comdat {
entry:
  %retval = alloca %"class.v8::Maybe", align 1
  %t.addr = alloca ptr, align 8
  store ptr %t, ptr %t.addr, align 8
  %0 = load ptr, ptr %t.addr, align 8
  call void @_ZN2v85MaybeIbEC2EOb(ptr noundef nonnull align 1 dereferenceable(2) %retval, ptr noundef nonnull align 1 dereferenceable(1) %0)
  %1 = load i16, ptr %retval, align 1
  ret i16 %1
}

; Function Attrs: mustprogress nounwind uwtable
define linkonce_odr dso_local noundef ptr @_ZNK4node11Environment7isolateEv(ptr noundef nonnull align 8 dereferenceable(2872) %this) #4 comdat align 2 {
entry:
  %this.addr = alloca ptr, align 8
  store ptr %this, ptr %this.addr, align 8
  %this1 = load ptr, ptr %this.addr, align 8
  %isolate_ = getelementptr inbounds %"class.node::Environment", ptr %this1, i32 0, i32 3
  %0 = load ptr, ptr %isolate_, align 8
  ret ptr %0
}

; Function Attrs: mustprogress nounwind uwtable
define dso_local i16 @_ZN4node6crypto17RandomBytesTraits12EncodeOutputEPNS_11EnvironmentERKNS0_17RandomBytesConfigEPNS0_10ByteSourceEPN2v85LocalINS9_5ValueEEE(ptr noundef %env, ptr noundef nonnull align 8 dereferenceable(24) %params, ptr noundef %unused, ptr noundef %result) #4 align 2 {
entry:
  %this.addr.i23 = alloca ptr, align 8
  %other.addr.i24 = alloca ptr, align 8
  %this.addr.i20 = alloca ptr, align 8
  %location.addr.i21 = alloca ptr, align 8
  %this.addr.i18 = alloca ptr, align 8
  %location.addr.i = alloca ptr, align 8
  %this.addr.i16 = alloca ptr, align 8
  %other.addr.i = alloca ptr, align 8
  %retval.i14 = alloca %"class.v8::LocalBase.1", align 8
  %slot.addr.i15 = alloca ptr, align 8
  %retval.i13 = alloca %"class.v8::Local.0", align 8
  %slot.addr.i = alloca ptr, align 8
  %ref.tmp.i = alloca %"class.v8::LocalBase.1", align 8
  %isolate.addr.i12 = alloca ptr, align 8
  %index.addr.i = alloca i32, align 4
  %addr.i = alloca i64, align 8
  %isolate.addr.i11 = alloca ptr, align 8
  %this.addr.i10 = alloca ptr, align 8
  %that.i = alloca %"class.v8::Local.0", align 8
  %this.addr.i = alloca ptr, align 8
  %retval.i = alloca %"class.v8::Local.0", align 8
  %isolate.addr.i = alloca ptr, align 8
  %slot.i = alloca ptr, align 8
  %retval = alloca %"class.v8::Maybe", align 1
  %env.addr = alloca ptr, align 8
  %params.addr = alloca ptr, align 8
  %unused.addr = alloca ptr, align 8
  %result.addr = alloca ptr, align 8
  %ref.tmp = alloca %"class.v8::Local", align 8
  %agg.tmp = alloca %"class.v8::Local.0", align 8
  %ref.tmp7 = alloca i8, align 1
  store ptr %env, ptr %env.addr, align 8
  store ptr %params, ptr %params.addr, align 8
  store ptr %unused, ptr %unused.addr, align 8
  store ptr %result, ptr %result.addr, align 8
  %0 = load ptr, ptr %env.addr, align 8
  %call = call noundef ptr @_ZNK4node11Environment7isolateEv(ptr noundef nonnull align 8 dereferenceable(2872) %0)
  store ptr %call, ptr %isolate.addr.i, align 8
  %1 = load ptr, ptr %isolate.addr.i, align 8
  store ptr %1, ptr %isolate.addr.i11, align 8
  %2 = load ptr, ptr %isolate.addr.i, align 8
  store ptr %2, ptr %isolate.addr.i12, align 8
  store i32 4, ptr %index.addr.i, align 4
  %3 = load ptr, ptr %isolate.addr.i12, align 8
  %4 = ptrtoint ptr %3 to i64
  %add.i = add i64 %4, 576
  %5 = load i32, ptr %index.addr.i, align 4
  %mul.i = mul nsw i32 %5, 8
  %conv.i = sext i32 %mul.i to i64
  %add1.i = add i64 %add.i, %conv.i
  store i64 %add1.i, ptr %addr.i, align 8
  %6 = load i64, ptr %addr.i, align 8
  %7 = inttoptr i64 %6 to ptr
  store ptr %7, ptr %slot.i, align 8
  %8 = load ptr, ptr %slot.i, align 8
  store ptr %8, ptr %slot.addr.i, align 8
  %9 = load ptr, ptr %slot.addr.i, align 8
  store ptr %9, ptr %slot.addr.i15, align 8
  %10 = load ptr, ptr %slot.addr.i15, align 8
  store ptr %retval.i14, ptr %this.addr.i18, align 8
  store ptr %10, ptr %location.addr.i, align 8
  %this1.i19 = load ptr, ptr %this.addr.i18, align 8
  %11 = load ptr, ptr %location.addr.i, align 8
  store ptr %this1.i19, ptr %this.addr.i20, align 8
  store ptr %11, ptr %location.addr.i21, align 8
  %this1.i22 = load ptr, ptr %this.addr.i20, align 8
  %12 = load ptr, ptr %location.addr.i21, align 8
  store ptr %12, ptr %this1.i22, align 8
  %13 = load ptr, ptr %retval.i14, align 8
  store ptr %13, ptr %ref.tmp.i, align 8
  store ptr %retval.i13, ptr %this.addr.i16, align 8
  store ptr %ref.tmp.i, ptr %other.addr.i, align 8
  %this1.i17 = load ptr, ptr %this.addr.i16, align 8
  %14 = load ptr, ptr %other.addr.i, align 8
  call void @llvm.memcpy.p0.p0.i64(ptr align 8 %this1.i17, ptr align 8 %14, i64 8, i1 false)
  %15 = load ptr, ptr %retval.i13, align 8
  store ptr %15, ptr %retval.i, align 8
  %16 = load ptr, ptr %retval.i, align 8
  %coerce.dive = getelementptr inbounds %"class.v8::Local.0", ptr %agg.tmp, i32 0, i32 0
  %coerce.dive2 = getelementptr inbounds %"class.v8::LocalBase.1", ptr %coerce.dive, i32 0, i32 0
  %coerce.dive3 = getelementptr inbounds %"class.v8::IndirectHandleBase", ptr %coerce.dive2, i32 0, i32 0
  store ptr %16, ptr %coerce.dive3, align 8
  %coerce.dive4 = getelementptr inbounds %"class.v8::Local.0", ptr %agg.tmp, i32 0, i32 0
  %coerce.dive5 = getelementptr inbounds %"class.v8::LocalBase.1", ptr %coerce.dive4, i32 0, i32 0
  %coerce.dive6 = getelementptr inbounds %"class.v8::IndirectHandleBase", ptr %coerce.dive5, i32 0, i32 0
  %17 = load ptr, ptr %coerce.dive6, align 8
  store ptr %17, ptr %that.i, align 8
  store ptr %ref.tmp, ptr %this.addr.i, align 8
  %this3.i = load ptr, ptr %this.addr.i, align 8
  store ptr %this3.i, ptr %this.addr.i23, align 8
  store ptr %that.i, ptr %other.addr.i24, align 8
  %this1.i25 = load ptr, ptr %this.addr.i23, align 8
  %18 = load ptr, ptr %other.addr.i24, align 8
  call void @llvm.memcpy.p0.p0.i64(ptr align 8 %this1.i25, ptr align 8 %18, i64 8, i1 false)
  %19 = load ptr, ptr %result.addr, align 8
  call void @llvm.memcpy.p0.p0.i64(ptr align 8 %19, ptr align 8 %ref.tmp, i64 8, i1 false)
  %20 = load ptr, ptr %result.addr, align 8
  store ptr %20, ptr %this.addr.i10, align 8
  %this1.i = load ptr, ptr %this.addr.i10, align 8
  %21 = load ptr, ptr %this1.i, align 8
  %cmp.i = icmp eq ptr %21, null
  %lnot = xor i1 %cmp.i, true
  %frombool = zext i1 %lnot to i8
  store i8 %frombool, ptr %ref.tmp7, align 1
  %call9 = call i16 @_ZN2v84JustIbTnPNSt9enable_ifIXntsr3stdE21is_lvalue_reference_vIT_EEvE4typeELPv0EEENS_5MaybeIS2_EEOS2_(ptr noundef nonnull align 1 dereferenceable(1) %ref.tmp7)
  store i16 %call9, ptr %retval, align 1
  %22 = load i16, ptr %retval, align 1
  ret i16 %22
}