; Function Attrs: mustprogress nofree norecurse nosync nounwind willreturn memory(argmem: readwrite) uwtable
define dso_local i16 @_ZN4node6crypto17RandomBytesTraits12EncodeOutputEPNS_11EnvironmentERKNS0_17RandomBytesConfigEPNS0_10ByteSourceEPN2v85LocalINS9_5ValueEEE(ptr nocapture noundef readonly %env, ptr nocapture noundef nonnull readnone align 8 dereferenceable(24) %params, ptr nocapture noundef readnone %unused, ptr nocapture noundef writeonly %result) local_unnamed_addr #3 align 2 {
entry:
  %isolate_.i = getelementptr inbounds i8, ptr %env, i64 88
  %0 = load ptr, ptr %isolate_.i, align 8
  %1 = ptrtoint ptr %0 to i64
  %add1.i = add i64 %1, 608
  %2 = inttoptr i64 %add1.i to ptr
  store ptr %2, ptr %result, align 8
  %cmp.i.not = icmp eq i64 %add1.i, 0
  %retval.sroa.0.0.insert.insert.i = select i1 %cmp.i.not, i16 1, i16 257
  ret i16 %retval.sroa.0.0.insert.insert.i
}